target datalayout = "e-m:e-p270:32:32-p271:32:32-p272:64:64-i64:64-i128:128-f80:128-n8:16:32:64-S128"
target triple = "x86_64-pc-linux-gnu"

%struct.hashfile = type { i32, i32, i32, %union.git_hash_ctx, i64, ptr, ptr, i32, i32, i64, ptr, ptr, ptr, i32 }
%union.git_hash_ctx = type { %struct.SHA1_CTX }
%struct.SHA1_CTX = type { i64, [5 x i32], [64 x i8], i32, i32, i32, i32, i32, ptr, [5 x i32], [5 x i32], [80 x i32], [80 x i32], [80 x [5 x i32]] }
%struct.git_hash_algo = type { ptr, i32, i64, i64, i64, ptr, ptr, ptr, ptr, ptr, ptr, ptr, ptr, ptr }
%struct.hashfile_checkpoint = type { i64, %union.git_hash_ctx }

; Function Attrs: nounwind uwtable
define dso_local i32 @hashfile_truncate(ptr noundef %0, ptr noundef %1) #0 {
  %3 = alloca i32, align 4
  %4 = alloca ptr, align 8
  %5 = alloca ptr, align 8
  %6 = alloca i64, align 8
  %7 = alloca i32, align 4
  store ptr %0, ptr %4, align 8, !tbaa !4
  store ptr %1, ptr %5, align 8, !tbaa !61
  call void @llvm.lifetime.start.p0(i64 8, ptr %6) #10
  %8 = load ptr, ptr %5, align 8, !tbaa !61
  %9 = getelementptr inbounds nuw %struct.hashfile_checkpoint, ptr %8, i32 0, i32 0
  %10 = load i64, ptr %9, align 8, !tbaa !63
  store i64 %10, ptr %6, align 8, !tbaa !40
  %11 = load ptr, ptr %4, align 8, !tbaa !4
  %12 = getelementptr inbounds nuw %struct.hashfile, ptr %11, i32 0, i32 0
  %13 = load i32, ptr %12, align 8, !tbaa !25
  %14 = load i64, ptr %6, align 8, !tbaa !40
  %15 = call i32 @ftruncate64(i32 noundef %13, i64 noundef %14) #10
  %16 = icmp ne i32 %15, 0
  br i1 %16, label %25, label %17

17:                                               ; preds = %2
  %18 = load ptr, ptr %4, align 8, !tbaa !4
  %19 = getelementptr inbounds nuw %struct.hashfile, ptr %18, i32 0, i32 0
  %20 = load i32, ptr %19, align 8, !tbaa !25
  %21 = load i64, ptr %6, align 8, !tbaa !40
  %22 = call i64 @lseek64(i32 noundef %20, i64 noundef %21, i32 noundef 0) #10
  %23 = load i64, ptr %6, align 8, !tbaa !40
  %24 = icmp ne i64 %22, %23
  br i1 %24, label %25, label %26

25:                                               ; preds = %17, %2
  store i32 -1, ptr %3, align 4
  store i32 1, ptr %7, align 4
  br label %41

26:                                               ; preds = %17
  %27 = load i64, ptr %6, align 8, !tbaa !40
  %28 = load ptr, ptr %4, align 8, !tbaa !4
  %29 = getelementptr inbounds nuw %struct.hashfile, ptr %28, i32 0, i32 4
  store i64 %27, ptr %29, align 8, !tbaa !27
  %30 = load ptr, ptr %4, align 8, !tbaa !4
  %31 = getelementptr inbounds nuw %struct.hashfile, ptr %30, i32 0, i32 12
  %32 = load ptr, ptr %31, align 8, !tbaa !18
  %33 = getelementptr inbounds nuw %struct.git_hash_algo, ptr %32, i32 0, i32 6
  %34 = load ptr, ptr %33, align 8, !tbaa !65
  %35 = load ptr, ptr %4, align 8, !tbaa !4
  %36 = getelementptr inbounds nuw %struct.hashfile, ptr %35, i32 0, i32 3
  %37 = load ptr, ptr %5, align 8, !tbaa !61
  %38 = getelementptr inbounds nuw %struct.hashfile_checkpoint, ptr %37, i32 0, i32 1
  call void %34(ptr noundef %36, ptr noundef %38)
  %39 = load ptr, ptr %4, align 8, !tbaa !4
  %40 = getelementptr inbounds nuw %struct.hashfile, ptr %39, i32 0, i32 2
  store i32 0, ptr %40, align 8, !tbaa !9
  store i32 0, ptr %3, align 4
  store i32 1, ptr %7, align 4
  br label %41

41:                                               ; preds = %26, %25
  call void @llvm.lifetime.end.p0(i64 8, ptr %6) #10
  %42 = load i32, ptr %3, align 4
  ret i32 %42
}