; Function Attrs: nounwind uwtable
define dso_local range(i32 -1, 1) i32 @hashfile_truncate(ptr noundef %0, ptr noundef %1) local_unnamed_addr #0 {
  %3 = load i64, ptr %1, align 8, !tbaa !54
  %4 = load i32, ptr %0, align 8, !tbaa !23
  %5 = tail call i32 @ftruncate64(i32 noundef %4, i64 noundef %3) #13
  %.not = icmp eq i32 %5, 0
  br i1 %.not, label %6, label %18

6:                                                ; preds = %2
  %7 = load i32, ptr %0, align 8, !tbaa !23
  %8 = tail call i64 @lseek64(i32 noundef %7, i64 noundef %3, i32 noundef 0) #13
  %.not13 = icmp eq i64 %8, %3
  br i1 %.not13, label %9, label %18

9:                                                ; preds = %6
  %10 = getelementptr inbounds nuw i8, ptr %0, i64 2416
  store i64 %3, ptr %10, align 8, !tbaa !25
  %11 = getelementptr inbounds nuw i8, ptr %0, i64 2472
  %12 = load ptr, ptr %11, align 8, !tbaa !15
  %13 = getelementptr inbounds nuw i8, ptr %12, i64 48
  %14 = load ptr, ptr %13, align 8, !tbaa !56
  %15 = getelementptr inbounds nuw i8, ptr %0, i64 16
  %16 = getelementptr inbounds nuw i8, ptr %1, i64 8
  tail call void %14(ptr noundef nonnull %15, ptr noundef nonnull %16) #13
  %17 = getelementptr inbounds nuw i8, ptr %0, i64 8
  store i32 0, ptr %17, align 8, !tbaa !4
  br label %18

18:                                               ; preds = %2, %6, %9
  %.0 = phi i32 [ 0, %9 ], [ -1, %6 ], [ -1, %2 ]
  ret i32 %.0
}